; Function Attrs: nounwind uwtable
define ptr @l_Lean_Widget_TaggedText_instRpcEncodable___rarg___lambda__1(ptr noundef %0, ptr noundef %1, ptr noundef %2) #1 {
  %4 = getelementptr inbounds nuw i8, ptr %0, i64 8
  %5 = load ptr, ptr %4, align 8, !tbaa !4
  %6 = ptrtoint ptr %5 to i64
  %7 = and i64 %6, 1
  %.not = icmp eq i64 %7, 0
  br i1 %.not, label %8, label %lean_inc.exit26

8:                                                ; preds = %3
  %.val.i = load i32, ptr %5, align 4, !tbaa !9
  %9 = icmp sgt i32 %.val.i, 0
  br i1 %9, label %10, label %12, !prof !12

10:                                               ; preds = %8
  %11 = add nuw i32 %.val.i, 1
  store i32 %11, ptr %5, align 4, !tbaa !9
  br label %lean_inc.exit26

12:                                               ; preds = %8
  %.not.i29 = icmp eq i32 %.val.i, 0
  br i1 %.not.i29, label %lean_inc.exit26, label %13

13:                                               ; preds = %12
  tail call void @lean_inc_ref_cold(ptr noundef nonnull %5) #5
  br label %lean_inc.exit26

lean_inc.exit26:                                  ; preds = %13, %12, %10, %3
  %14 = ptrtoint ptr %0 to i64
  %15 = and i64 %14, 1
  %.not36 = icmp eq i64 %15, 0
  br i1 %.not36, label %16, label %lean_dec.exit24

16:                                               ; preds = %lean_inc.exit26
  %17 = load i32, ptr %0, align 4, !tbaa !9
  %18 = icmp sgt i32 %17, 1
  br i1 %18, label %19, label %21, !prof !12

19:                                               ; preds = %16
  %20 = add nsw i32 %17, -1
  store i32 %20, ptr %0, align 4, !tbaa !9
  br label %lean_dec.exit24

21:                                               ; preds = %16
  %.not.i = icmp eq i32 %17, 0
  br i1 %.not.i, label %lean_dec.exit24, label %22

22:                                               ; preds = %21
  tail call void @lean_dec_ref_cold(ptr noundef nonnull %0) #5
  br label %lean_dec.exit24

lean_dec.exit24:                                  ; preds = %22, %21, %19, %lean_inc.exit26
  %23 = tail call ptr @l_Lean_Widget_TaggedText_mapM___at_Lean_Widget_TaggedText_instRpcEncodable___spec__1___rarg(ptr noundef %5, ptr noundef %1, ptr noundef %2)
  %.val = load i32, ptr %23, align 4, !tbaa !9
  %24 = icmp eq i32 %.val, 1
  %25 = getelementptr inbounds nuw i8, ptr %23, i64 8
  %26 = load ptr, ptr %25, align 8, !tbaa !4
  br i1 %24, label %27, label %29

27:                                               ; preds = %lean_dec.exit24
  %28 = tail call ptr @l___private_Lean_Widget_TaggedText_0__Lean_Widget_toJsonTaggedText____x40_Lean_Widget_TaggedText___hyg_621____at_Lean_Widget_TaggedText_instRpcEncodable___spec__3(ptr noundef %26)
  store ptr %28, ptr %25, align 8, !tbaa !4
  br label %64

29:                                               ; preds = %lean_dec.exit24
  %30 = getelementptr inbounds nuw i8, ptr %23, i64 16
  %31 = load ptr, ptr %30, align 8, !tbaa !4
  %32 = ptrtoint ptr %31 to i64
  %33 = and i64 %32, 1
  %.not37 = icmp eq i64 %33, 0
  br i1 %.not37, label %34, label %lean_inc.exit25

34:                                               ; preds = %29
  %.val.i30 = load i32, ptr %31, align 4, !tbaa !9
  %35 = icmp sgt i32 %.val.i30, 0
  br i1 %35, label %36, label %38, !prof !12

36:                                               ; preds = %34
  %37 = add nuw i32 %.val.i30, 1
  store i32 %37, ptr %31, align 4, !tbaa !9
  br label %lean_inc.exit25

38:                                               ; preds = %34
  %.not.i31 = icmp eq i32 %.val.i30, 0
  br i1 %.not.i31, label %lean_inc.exit25, label %39

39:                                               ; preds = %38
  tail call void @lean_inc_ref_cold(ptr noundef nonnull %31) #5
  br label %lean_inc.exit25

lean_inc.exit25:                                  ; preds = %39, %38, %36, %29
  %40 = ptrtoint ptr %26 to i64
  %41 = and i64 %40, 1
  %.not38 = icmp eq i64 %41, 0
  br i1 %.not38, label %42, label %lean_inc.exit

42:                                               ; preds = %lean_inc.exit25
  %.val.i33 = load i32, ptr %26, align 4, !tbaa !9
  %43 = icmp sgt i32 %.val.i33, 0
  br i1 %43, label %44, label %46, !prof !12

44:                                               ; preds = %42
  %45 = add nuw i32 %.val.i33, 1
  store i32 %45, ptr %26, align 4, !tbaa !9
  br label %lean_inc.exit

46:                                               ; preds = %42
  %.not.i34 = icmp eq i32 %.val.i33, 0
  br i1 %.not.i34, label %lean_inc.exit, label %47

47:                                               ; preds = %46
  tail call void @lean_inc_ref_cold(ptr noundef nonnull %26) #5
  br label %lean_inc.exit

lean_inc.exit:                                    ; preds = %47, %46, %44, %lean_inc.exit25
  %48 = ptrtoint ptr %23 to i64
  %49 = and i64 %48, 1
  %.not39 = icmp eq i64 %49, 0
  br i1 %.not39, label %50, label %lean_dec.exit

50:                                               ; preds = %lean_inc.exit
  %51 = load i32, ptr %23, align 4, !tbaa !9
  %52 = icmp sgt i32 %51, 1
  br i1 %52, label %53, label %55, !prof !12

53:                                               ; preds = %50
  %54 = add nsw i32 %51, -1
  store i32 %54, ptr %23, align 4, !tbaa !9
  br label %lean_dec.exit

55:                                               ; preds = %50
  %.not.i27 = icmp eq i32 %51, 0
  br i1 %.not.i27, label %lean_dec.exit, label %56

56:                                               ; preds = %55
  tail call void @lean_dec_ref_cold(ptr noundef nonnull %23) #5
  br label %lean_dec.exit

lean_dec.exit:                                    ; preds = %56, %55, %53, %lean_inc.exit
  %57 = tail call ptr @l___private_Lean_Widget_TaggedText_0__Lean_Widget_toJsonTaggedText____x40_Lean_Widget_TaggedText___hyg_621____at_Lean_Widget_TaggedText_instRpcEncodable___spec__3(ptr noundef %26)
  tail call void @lean_inc_heartbeat() #5
  %58 = tail call noalias ptr @mi_malloc_small(i64 noundef 24) #5
  %59 = icmp eq ptr %58, null
  br i1 %59, label %60, label %lean_alloc_ctor.exit

60:                                               ; preds = %lean_dec.exit
  tail call void @lean_internal_panic_out_of_memory() #6
  unreachable

lean_alloc_ctor.exit:                             ; preds = %lean_dec.exit
  %61 = getelementptr inbounds nuw i8, ptr %58, i64 4
  store i32 1, ptr %58, align 4, !tbaa !9
  store i32 131096, ptr %61, align 4
  %62 = getelementptr inbounds nuw i8, ptr %58, i64 8
  store ptr %57, ptr %62, align 8, !tbaa !4
  %63 = getelementptr inbounds nuw i8, ptr %58, i64 16
  store ptr %31, ptr %63, align 8, !tbaa !4
  br label %64

64:                                               ; preds = %lean_alloc_ctor.exit, %27
  %.0 = phi ptr [ %23, %27 ], [ %58, %lean_alloc_ctor.exit ]
  ret ptr %.0
}